target datalayout = "e-m:e-p270:32:32-p271:32:32-p272:64:64-i64:64-i128:128-f80:128-n8:16:32:64-S128"
target triple = "x86_64-pc-linux-gnu"

%struct.Abc_Obj_t_ = type { ptr, ptr, i32, i32, %struct.Vec_Int_t_, %struct.Vec_Int_t_, %union.anon, %union.anon.0 }
%struct.Vec_Int_t_ = type { i32, i32, ptr }
%union.anon = type { ptr }
%union.anon.0 = type { ptr }
%struct.Mfs_Man_t_ = type { ptr, ptr, ptr, ptr, i32, ptr, ptr, ptr, ptr, ptr, ptr, ptr, ptr, i32, i32, i32, i32, ptr, ptr, i32, i32, i32, ptr, ptr, ptr, ptr, ptr, ptr, ptr, i32, i32, ptr, i32, i32, i32, [128 x i32], i32, i32, i32, i32, i32, i32, i32, i32, i32, i32, i32, i32, i32, i32, double, i32, i32, i32, i32, float, float, i64, i64, i64, i64, i64, i64, i64, i64 }
%struct.Vec_Ptr_t_ = type { i32, i32, ptr }
%struct.Abc_Ntk_t_ = type { i32, i32, ptr, ptr, ptr, ptr, ptr, ptr, ptr, ptr, ptr, ptr, ptr, [11 x i32], i32, i32, i32, i32, ptr, i32, ptr, ptr, i32, i32, i32, double, i32, %struct.Vec_Int_t_, ptr, ptr, ptr, ptr, ptr, float, i32, ptr, ptr, ptr, ptr, ptr, ptr, ptr, ptr, ptr, ptr, ptr, ptr, ptr, ptr, ptr, ptr, ptr, ptr, ptr, ptr, ptr, ptr }
%struct.Mfs_Par_t_ = type { i32, i32, i32, i32, i32, i32, i32, i32, i32, i32, i32, i32, i32, i32, i32, i32, i32 }

; Function Attrs: inlinehint nounwind uwtable
define internal i32 @Abc_ObjFanoutNum(ptr noundef %0) #2 {
  %2 = alloca ptr, align 8
  store ptr %0, ptr %2, align 8, !tbaa !8
  %3 = load ptr, ptr %2, align 8, !tbaa !8
  %4 = getelementptr inbounds nuw %struct.Abc_Obj_t_, ptr %3, i32 0, i32 5
  %5 = getelementptr inbounds nuw %struct.Vec_Int_t_, ptr %4, i32 0, i32 1
  %6 = load i32, ptr %5, align 4, !tbaa !57
  ret i32 %6
}

; Function Attrs: inlinehint nounwind uwtable
define internal i32 @Abc_ObjIsCi(ptr noundef %0) #2 {
  %2 = alloca ptr, align 8
  store ptr %0, ptr %2, align 8, !tbaa !8
  %3 = load ptr, ptr %2, align 8, !tbaa !8
  %4 = getelementptr inbounds nuw %struct.Abc_Obj_t_, ptr %3, i32 0, i32 3
  %5 = load i32, ptr %4, align 4
  %6 = and i32 %5, 15
  %7 = icmp eq i32 %6, 2
  br i1 %7, label %14, label %8

8:                                                ; preds = %1
  %9 = load ptr, ptr %2, align 8, !tbaa !8
  %10 = getelementptr inbounds nuw %struct.Abc_Obj_t_, ptr %9, i32 0, i32 3
  %11 = load i32, ptr %10, align 4
  %12 = and i32 %11, 15
  %13 = icmp eq i32 %12, 5
  br label %14

14:                                               ; preds = %8, %1
  %15 = phi i1 [ true, %1 ], [ %13, %8 ]
  %16 = zext i1 %15 to i32
  ret i32 %16
}

; Function Attrs: inlinehint nounwind uwtable
define internal ptr @Abc_ObjFanin(ptr noundef %0, i32 noundef %1) #2 {
  %3 = alloca ptr, align 8
  %4 = alloca i32, align 4
  store ptr %0, ptr %3, align 8, !tbaa !8
  store i32 %1, ptr %4, align 4, !tbaa !21
  %5 = load ptr, ptr %3, align 8, !tbaa !8
  %6 = getelementptr inbounds nuw %struct.Abc_Obj_t_, ptr %5, i32 0, i32 0
  %7 = load ptr, ptr %6, align 8, !tbaa !14
  %8 = getelementptr inbounds nuw %struct.Abc_Ntk_t_, ptr %7, i32 0, i32 5
  %9 = load ptr, ptr %8, align 8, !tbaa !43
  %10 = getelementptr inbounds nuw %struct.Vec_Ptr_t_, ptr %9, i32 0, i32 2
  %11 = load ptr, ptr %10, align 8, !tbaa !40
  %12 = load ptr, ptr %3, align 8, !tbaa !8
  %13 = getelementptr inbounds nuw %struct.Abc_Obj_t_, ptr %12, i32 0, i32 4
  %14 = getelementptr inbounds nuw %struct.Vec_Int_t_, ptr %13, i32 0, i32 2
  %15 = load ptr, ptr %14, align 8, !tbaa !56
  %16 = load i32, ptr %4, align 4, !tbaa !21
  %17 = sext i32 %16 to i64
  %18 = getelementptr inbounds i32, ptr %15, i64 %17
  %19 = load i32, ptr %18, align 4, !tbaa !21
  %20 = sext i32 %19 to i64
  %21 = getelementptr inbounds ptr, ptr %11, i64 %20
  %22 = load ptr, ptr %21, align 8, !tbaa !41
  ret ptr %22
}

; Function Attrs: inlinehint nounwind uwtable
define internal i32 @Abc_ObjFaninNum(ptr noundef %0) #2 {
  %2 = alloca ptr, align 8
  store ptr %0, ptr %2, align 8, !tbaa !8
  %3 = load ptr, ptr %2, align 8, !tbaa !8
  %4 = getelementptr inbounds nuw %struct.Abc_Obj_t_, ptr %3, i32 0, i32 4
  %5 = getelementptr inbounds nuw %struct.Vec_Int_t_, ptr %4, i32 0, i32 1
  %6 = load i32, ptr %5, align 4, !tbaa !55
  ret i32 %6
}

; Function Attrs: nounwind uwtable
define i32 @Abc_NtkMfsResubNode(ptr noundef %0, ptr noundef %1) #0 {
  %3 = alloca i32, align 4
  %4 = alloca ptr, align 8
  %5 = alloca ptr, align 8
  %6 = alloca ptr, align 8
  %7 = alloca i32, align 4
  %8 = alloca i32, align 4
  store ptr %0, ptr %4, align 8, !tbaa !3
  store ptr %1, ptr %5, align 8, !tbaa !8
  call void @llvm.lifetime.start.p0(i64 8, ptr %6) #8
  call void @llvm.lifetime.start.p0(i64 4, ptr %7) #8
  store i32 0, ptr %7, align 4, !tbaa !21
  br label %9

9:                                                ; preds = %37, %2
  %10 = load i32, ptr %7, align 4, !tbaa !21
  %11 = load ptr, ptr %5, align 8, !tbaa !8
  %12 = call i32 @Abc_ObjFaninNum(ptr noundef %11)
  %13 = icmp slt i32 %10, %12
  br i1 %13, label %14, label %18

14:                                               ; preds = %9
  %15 = load ptr, ptr %5, align 8, !tbaa !8
  %16 = load i32, ptr %7, align 4, !tbaa !21
  %17 = call ptr @Abc_ObjFanin(ptr noundef %15, i32 noundef %16)
  store ptr %17, ptr %6, align 8, !tbaa !8
  br label %18

18:                                               ; preds = %14, %9
  %19 = phi i1 [ false, %9 ], [ true, %14 ]
  br i1 %19, label %20, label %40

20:                                               ; preds = %18
  %21 = load ptr, ptr %6, align 8, !tbaa !8
  %22 = call i32 @Abc_ObjIsCi(ptr noundef %21)
  %23 = icmp ne i32 %22, 0
  br i1 %23, label %36, label %24

24:                                               ; preds = %20
  %25 = load ptr, ptr %6, align 8, !tbaa !8
  %26 = call i32 @Abc_ObjFanoutNum(ptr noundef %25)
  %27 = icmp eq i32 %26, 1
  br i1 %27, label %28, label %36

28:                                               ; preds = %24
  %29 = load ptr, ptr %4, align 8, !tbaa !3
  %30 = load ptr, ptr %5, align 8, !tbaa !8
  %31 = load i32, ptr %7, align 4, !tbaa !21
  %32 = call i32 @Abc_NtkMfsSolveSatResub(ptr noundef %29, ptr noundef %30, i32 noundef %31, i32 noundef 0, i32 noundef 0)
  %33 = icmp ne i32 %32, 0
  br i1 %33, label %34, label %35

34:                                               ; preds = %28
  store i32 1, ptr %3, align 4
  store i32 1, ptr %8, align 4
  br label %89

35:                                               ; preds = %28
  br label %36

36:                                               ; preds = %35, %24, %20
  br label %37

37:                                               ; preds = %36
  %38 = load i32, ptr %7, align 4, !tbaa !21
  %39 = add nsw i32 %38, 1
  store i32 %39, ptr %7, align 4, !tbaa !21
  br label %9, !llvm.loop !123

40:                                               ; preds = %18
  %41 = load ptr, ptr %4, align 8, !tbaa !3
  %42 = getelementptr inbounds nuw %struct.Mfs_Man_t_, ptr %41, i32 0, i32 0
  %43 = load ptr, ptr %42, align 8, !tbaa !61
  %44 = getelementptr inbounds nuw %struct.Mfs_Par_t_, ptr %43, i32 0, i32 8
  %45 = load i32, ptr %44, align 4, !tbaa !124
  %46 = icmp ne i32 %45, 0
  br i1 %46, label %80, label %47

47:                                               ; preds = %40
  store i32 0, ptr %7, align 4, !tbaa !21
  br label %48

48:                                               ; preds = %76, %47
  %49 = load i32, ptr %7, align 4, !tbaa !21
  %50 = load ptr, ptr %5, align 8, !tbaa !8
  %51 = call i32 @Abc_ObjFaninNum(ptr noundef %50)
  %52 = icmp slt i32 %49, %51
  br i1 %52, label %53, label %57

53:                                               ; preds = %48
  %54 = load ptr, ptr %5, align 8, !tbaa !8
  %55 = load i32, ptr %7, align 4, !tbaa !21
  %56 = call ptr @Abc_ObjFanin(ptr noundef %54, i32 noundef %55)
  store ptr %56, ptr %6, align 8, !tbaa !8
  br label %57

57:                                               ; preds = %53, %48
  %58 = phi i1 [ false, %48 ], [ true, %53 ]
  br i1 %58, label %59, label %79

59:                                               ; preds = %57
  %60 = load ptr, ptr %6, align 8, !tbaa !8
  %61 = call i32 @Abc_ObjIsCi(ptr noundef %60)
  %62 = icmp ne i32 %61, 0
  br i1 %62, label %67, label %63

63:                                               ; preds = %59
  %64 = load ptr, ptr %6, align 8, !tbaa !8
  %65 = call i32 @Abc_ObjFanoutNum(ptr noundef %64)
  %66 = icmp ne i32 %65, 1
  br i1 %66, label %67, label %75

67:                                               ; preds = %63, %59
  %68 = load ptr, ptr %4, align 8, !tbaa !3
  %69 = load ptr, ptr %5, align 8, !tbaa !8
  %70 = load i32, ptr %7, align 4, !tbaa !21
  %71 = call i32 @Abc_NtkMfsSolveSatResub(ptr noundef %68, ptr noundef %69, i32 noundef %70, i32 noundef 1, i32 noundef 0)
  %72 = icmp ne i32 %71, 0
  br i1 %72, label %73, label %74

73:                                               ; preds = %67
  store i32 1, ptr %3, align 4
  store i32 1, ptr %8, align 4
  br label %89

74:                                               ; preds = %67
  br label %75

75:                                               ; preds = %74, %63
  br label %76

76:                                               ; preds = %75
  %77 = load i32, ptr %7, align 4, !tbaa !21
  %78 = add nsw i32 %77, 1
  store i32 %78, ptr %7, align 4, !tbaa !21
  br label %48, !llvm.loop !125

79:                                               ; preds = %57
  br label %80

80:                                               ; preds = %79, %40
  %81 = load ptr, ptr %5, align 8, !tbaa !8
  %82 = call i32 @Abc_ObjFaninNum(ptr noundef %81)
  %83 = load ptr, ptr %4, align 8, !tbaa !3
  %84 = getelementptr inbounds nuw %struct.Mfs_Man_t_, ptr %83, i32 0, i32 4
  %85 = load i32, ptr %84, align 8, !tbaa !126
  %86 = icmp eq i32 %82, %85
  br i1 %86, label %87, label %88

87:                                               ; preds = %80
  store i32 0, ptr %3, align 4
  store i32 1, ptr %8, align 4
  br label %89

88:                                               ; preds = %80
  store i32 0, ptr %3, align 4
  store i32 1, ptr %8, align 4
  br label %89

89:                                               ; preds = %88, %87, %73, %34
  call void @llvm.lifetime.end.p0(i64 4, ptr %7) #8
  call void @llvm.lifetime.end.p0(i64 8, ptr %6) #8
  %90 = load i32, ptr %3, align 4
  ret i32 %90
}